(dp1
S'first_name'
p2
S'CHAR(128)'
p3
sS'last_name'
p4
S'CHAR(128)'
p5
sS'email'
p6
S'CHAR(512)'
p7
sS'reset_password_key'
p8
S'CHAR(512)'
p9
sS'password'
p10
S'CHAR(512)'
p11
sS'registration_key'
p12
S'CHAR(512)'
p13
sS'id'
p14
S'INTEGER PRIMARY KEY AUTOINCREMENT'
p15
s.